; Function Attrs: nounwind uwtable
define internal range(i32 -1, 1) i32 @H5C__json_write_flush_cache_log_msg(ptr noundef readonly captures(none) %0, i32 noundef %1) #0 {
  %3 = load i8, ptr @H5C_init_g, align 1, !tbaa !3, !range !7, !noundef !8
  %4 = trunc nuw i8 %3 to i1
  %5 = load i8, ptr @H5_libterm_g, align 1, !range !7
  %6 = trunc nuw i8 %5 to i1
  %7 = xor i1 %6, true
  %8 = select i1 %4, i1 true, i1 %7
  br i1 %8, label %9, label %H5C__json_write_log_message.exit.thread, !prof !9

9:                                                ; preds = %2
  %10 = getelementptr inbounds nuw i8, ptr %0, i64 8
  %11 = load ptr, ptr %10, align 8, !tbaa !15
  %12 = tail call i64 @time(ptr noundef null) #10
  %13 = tail call i32 (ptr, i64, ptr, ...) @snprintf(ptr noundef nonnull dereferenceable(1) %11, i64 noundef 1024, ptr noundef nonnull @.str.17, i64 noundef %12, i32 noundef %1) #10
  %14 = load i8, ptr @H5C_init_g, align 1, !tbaa !3, !range !7, !noundef !8
  %15 = trunc nuw i8 %14 to i1
  %16 = load i8, ptr @H5_libterm_g, align 1, !range !7
  %17 = trunc nuw i8 %16 to i1
  %18 = xor i1 %17, true
  %19 = select i1 %15, i1 true, i1 %18
  br i1 %19, label %20, label %H5C__json_write_log_message.exit.thread, !prof !9

20:                                               ; preds = %9
  %21 = load ptr, ptr %10, align 8, !tbaa !15
  %22 = tail call i64 @strlen(ptr noundef nonnull dereferenceable(1) %21) #11
  %23 = trunc i64 %22 to i32
  %24 = load ptr, ptr %0, align 8, !tbaa !21
  %25 = tail call i32 (ptr, ptr, ...) @fprintf(ptr noundef %24, ptr noundef nonnull @.str.3, ptr noundef nonnull %21) #10
  %.not.i = icmp eq i32 %25, %23
  br i1 %.not.i, label %26, label %28

26:                                               ; preds = %20
  %27 = load ptr, ptr %10, align 8, !tbaa !15
  tail call void @llvm.memset.p0.i64(ptr align 1 %27, i8 0, i64 %22, i1 false)
  br label %H5C__json_write_log_message.exit.thread

28:                                               ; preds = %20
  %29 = load i64, ptr @H5E_CACHE_g, align 8, !tbaa !19
  %30 = load i64, ptr @H5E_LOGGING_g, align 8, !tbaa !19
  %31 = tail call i32 (ptr, ptr, i32, i64, i64, ptr, ...) @H5E_printf_stack(ptr noundef nonnull @.str, ptr noundef nonnull @__func__.H5C__json_write_log_message, i32 noundef 173, i64 noundef %29, i64 noundef %30, ptr noundef nonnull @.str.11) #10
  %32 = load i64, ptr @H5E_CACHE_g, align 8, !tbaa !19
  %33 = load i64, ptr @H5E_LOGGING_g, align 8, !tbaa !19
  %34 = tail call i32 (ptr, ptr, i32, i64, i64, ptr, ...) @H5E_printf_stack(ptr noundef nonnull @.str, ptr noundef nonnull @__func__.H5C__json_write_flush_cache_log_msg, i32 noundef 581, i64 noundef %32, i64 noundef %33, ptr noundef nonnull @.str.10) #10
  br label %H5C__json_write_log_message.exit.thread

H5C__json_write_log_message.exit.thread:          ; preds = %9, %26, %28, %2
  %.0 = phi i32 [ -1, %28 ], [ 0, %2 ], [ 0, %26 ], [ 0, %9 ]
  ret i32 %.0
}